target datalayout = "e-m:e-p270:32:32-p271:32:32-p272:64:64-i64:64-i128:128-f80:128-n8:16:32:64-S128"
target triple = "x86_64-pc-linux-gnu"

%struct.EncoderSession = type { i32, i32, i32, i32, ptr, ptr, ptr, i32, i32, i32, i64, i64, i64, i64, i32, i64, [16 x i8], %struct.SampleInfo, i32, %union.anon.4, ptr, ptr, ptr, double, double }
%struct.SampleInfo = type { i32, i32, i32, i32, i32, i32, i32, i32 }
%union.anon.4 = type { %struct.anon.6 }
%struct.anon.6 = type { ptr, %struct.FLACDecoderData }
%struct.FLACDecoderData = type { i64, ptr, i32, i64, [1024 x ptr], i64, i32 }

@flac__utils_verbosity_ = external global i32, align 4
@.str.95 = private unnamed_addr constant [6 x i8] c"%0.3f\00", align 1
@.str.96 = private unnamed_addr constant [4 x i8] c"N/A\00", align 1
@.str.97 = private unnamed_addr constant [28 x i8] c"%swrote %lu bytes, ratio=%s\00", align 1
@.str.98 = private unnamed_addr constant [12 x i8] c"Verify OK, \00", align 1
@.str.99 = private unnamed_addr constant [1 x i8] zeroinitializer, align 1
@.str.100 = private unnamed_addr constant [24 x i8] c"%u%% complete, ratio=%s\00", align 1

; Function Attrs: nounwind sspstrong uwtable
define internal void @print_stats(ptr noundef %0) #0 {
  %2 = alloca ptr, align 8
  %3 = alloca [16 x i8], align 16
  store ptr %0, ptr %2, align 8, !tbaa !48
  %4 = load i32, ptr @flac__utils_verbosity_, align 4, !tbaa !13
  %5 = icmp sge i32 %4, 2
  br i1 %5, label %6, label %53

6:                                                ; preds = %1
  call void @llvm.lifetime.start.p0(i64 16, ptr %3) #14
  %7 = load ptr, ptr %2, align 8, !tbaa !48
  %8 = getelementptr inbounds nuw %struct.EncoderSession, ptr %7, i32 0, i32 24
  %9 = load double, ptr %8, align 8, !tbaa !64
  %10 = fcmp ogt double %9, 0.000000e+00
  br i1 %10, label %11, label %17

11:                                               ; preds = %6
  %12 = getelementptr inbounds [16 x i8], ptr %3, i64 0, i64 0
  %13 = load ptr, ptr %2, align 8, !tbaa !48
  %14 = getelementptr inbounds nuw %struct.EncoderSession, ptr %13, i32 0, i32 24
  %15 = load double, ptr %14, align 8, !tbaa !64
  %16 = call i32 (ptr, i64, ptr, ...) @flac_snprintf(ptr noundef %12, i64 noundef 16, ptr noundef @.str.95, double noundef %15)
  br label %20

17:                                               ; preds = %6
  %18 = getelementptr inbounds [16 x i8], ptr %3, i64 0, i64 0
  %19 = call i32 (ptr, i64, ptr, ...) @flac_snprintf(ptr noundef %18, i64 noundef 16, ptr noundef @.str.96)
  br label %20

20:                                               ; preds = %17, %11
  %21 = load ptr, ptr %2, align 8, !tbaa !48
  %22 = getelementptr inbounds nuw %struct.EncoderSession, ptr %21, i32 0, i32 13
  %23 = load i64, ptr %22, align 8, !tbaa !42
  %24 = load ptr, ptr %2, align 8, !tbaa !48
  %25 = getelementptr inbounds nuw %struct.EncoderSession, ptr %24, i32 0, i32 10
  %26 = load i64, ptr %25, align 8, !tbaa !37
  %27 = icmp eq i64 %23, %26
  br i1 %27, label %28, label %41

28:                                               ; preds = %20
  %29 = load ptr, ptr %2, align 8, !tbaa !48
  %30 = getelementptr inbounds nuw %struct.EncoderSession, ptr %29, i32 0, i32 4
  %31 = load ptr, ptr %30, align 8, !tbaa !24
  call void @stats_print_name(i32 noundef 2, ptr noundef %31)
  %32 = load ptr, ptr %2, align 8, !tbaa !48
  %33 = getelementptr inbounds nuw %struct.EncoderSession, ptr %32, i32 0, i32 1
  %34 = load i32, ptr %33, align 4, !tbaa !55
  %35 = icmp ne i32 %34, 0
  %36 = select i1 %35, ptr @.str.98, ptr @.str.99
  %37 = load ptr, ptr %2, align 8, !tbaa !48
  %38 = getelementptr inbounds nuw %struct.EncoderSession, ptr %37, i32 0, i32 12
  %39 = load i64, ptr %38, align 8, !tbaa !61
  %40 = getelementptr inbounds [16 x i8], ptr %3, i64 0, i64 0
  call void (i32, ptr, ...) @stats_print_info(i32 noundef 2, ptr noundef @.str.97, ptr noundef %36, i64 noundef %39, ptr noundef %40)
  br label %52

41:                                               ; preds = %20
  %42 = load ptr, ptr %2, align 8, !tbaa !48
  %43 = getelementptr inbounds nuw %struct.EncoderSession, ptr %42, i32 0, i32 4
  %44 = load ptr, ptr %43, align 8, !tbaa !24
  call void @stats_print_name(i32 noundef 2, ptr noundef %44)
  %45 = load ptr, ptr %2, align 8, !tbaa !48
  %46 = getelementptr inbounds nuw %struct.EncoderSession, ptr %45, i32 0, i32 23
  %47 = load double, ptr %46, align 8, !tbaa !187
  %48 = call double @llvm.fmuladd.f64(double %47, double 1.000000e+02, double 5.000000e-01)
  %49 = call double @llvm.floor.f64(double %48)
  %50 = fptoui double %49 to i32
  %51 = getelementptr inbounds [16 x i8], ptr %3, i64 0, i64 0
  call void (i32, ptr, ...) @stats_print_info(i32 noundef 2, ptr noundef @.str.100, i32 noundef %50, ptr noundef %51)
  br label %52

52:                                               ; preds = %41, %28
  call void @llvm.lifetime.end.p0(i64 16, ptr %3) #14
  br label %53

53:                                               ; preds = %52, %1
  ret void
}