; Function Attrs: nounwind sspstrong uwtable
define internal fastcc void @print_stats(ptr noundef readonly captures(none) %0) unnamed_addr #0 {
  %2 = alloca [16 x i8], align 16
  %3 = load i32, ptr @flac__utils_verbosity_, align 4, !tbaa !52
  %4 = icmp sgt i32 %3, 1
  br i1 %4, label %5, label %34

5:                                                ; preds = %1
  call void @llvm.lifetime.start.p0(i64 16, ptr nonnull %2) #20
  %6 = getelementptr inbounds nuw i8, ptr %0, i64 8440
  %7 = load double, ptr %6, align 8, !tbaa !28
  %8 = fcmp ogt double %7, 0.000000e+00
  br i1 %8, label %9, label %11

9:                                                ; preds = %5
  %10 = call i32 (ptr, i64, ptr, ...) @flac_snprintf(ptr noundef nonnull %2, i64 noundef 16, ptr noundef nonnull @.str.95, double noundef %7) #20
  br label %13

11:                                               ; preds = %5
  %12 = call i32 (ptr, i64, ptr, ...) @flac_snprintf(ptr noundef nonnull %2, i64 noundef 16, ptr noundef nonnull @.str.96) #20
  br label %13

13:                                               ; preds = %11, %9
  %14 = getelementptr inbounds nuw i8, ptr %0, i64 80
  %15 = load i64, ptr %14, align 8, !tbaa !80
  %16 = getelementptr inbounds nuw i8, ptr %0, i64 56
  %17 = load i64, ptr %16, align 8, !tbaa !43
  %18 = icmp eq i64 %15, %17
  %19 = getelementptr inbounds nuw i8, ptr %0, i64 16
  %20 = load ptr, ptr %19, align 8, !tbaa !25
  call void @stats_print_name(i32 noundef 2, ptr noundef %20) #20
  br i1 %18, label %21, label %27

21:                                               ; preds = %13
  %22 = getelementptr inbounds nuw i8, ptr %0, i64 4
  %23 = load i32, ptr %22, align 4, !tbaa !20
  %.not = icmp eq i32 %23, 0
  %24 = select i1 %.not, ptr @.str.99, ptr @.str.98
  %25 = getelementptr inbounds nuw i8, ptr %0, i64 72
  %26 = load i64, ptr %25, align 8, !tbaa !187
  call void (i32, ptr, ...) @stats_print_info(i32 noundef 2, ptr noundef nonnull @.str.97, ptr noundef nonnull %24, i64 noundef %26, ptr noundef nonnull %2) #20
  br label %33

27:                                               ; preds = %13
  %28 = getelementptr inbounds nuw i8, ptr %0, i64 8432
  %29 = load double, ptr %28, align 8, !tbaa !188
  %30 = call double @llvm.fmuladd.f64(double %29, double 1.000000e+02, double 5.000000e-01)
  %31 = call double @llvm.floor.f64(double %30)
  %32 = fptoui double %31 to i32
  call void (i32, ptr, ...) @stats_print_info(i32 noundef 2, ptr noundef nonnull @.str.100, i32 noundef %32, ptr noundef nonnull %2) #20
  br label %33

33:                                               ; preds = %27, %21
  call void @llvm.lifetime.end.p0(i64 16, ptr nonnull %2) #20
  br label %34

34:                                               ; preds = %33, %1
  ret void
}